; ModuleID = 'source-C-CXX/24/431.cpp'
source_filename = "source-C-CXX/24/431.cpp"
target datalayout = "e-m:e-p270:32:32-p271:32:32-p272:64:64-i64:64-f80:128-n8:16:32:64-S128"
target triple = "x86_64-pc-linux-gnu"

%"class.std::ios_base::Init" = type { i8 }
%"class.std::basic_istream" = type { i32 (...)**, i64, %"class.std::basic_ios" }
%"class.std::basic_ios" = type { %"class.std::ios_base", %"class.std::basic_ostream"*, i8, i8, %"class.std::basic_streambuf"*, %"class.std::ctype"*, %"class.std::num_put"*, %"class.std::num_get"* }
%"class.std::ios_base" = type { i32 (...)**, i64, i64, i32, i32, i32, %"struct.std::ios_base::_Callback_list"*, %"struct.std::ios_base::_Words", [8 x %"struct.std::ios_base::_Words"], i32, %"struct.std::ios_base::_Words"*, %"class.std::locale" }
%"struct.std::ios_base::_Callback_list" = type { %"struct.std::ios_base::_Callback_list"*, void (i32, %"class.std::ios_base"*, i32)*, i32, i32 }
%"struct.std::ios_base::_Words" = type { i8*, i64 }
%"class.std::locale" = type { %"class.std::locale::_Impl"* }
%"class.std::locale::_Impl" = type { i32, %"class.std::locale::facet"**, i64, %"class.std::locale::facet"**, i8** }
%"class.std::locale::facet" = type <{ i32 (...)**, i32, [4 x i8] }>
%"class.std::basic_ostream" = type { i32 (...)**, %"class.std::basic_ios" }
%"class.std::basic_streambuf" = type { i32 (...)**, i8*, i8*, i8*, i8*, i8*, i8*, %"class.std::locale" }
%"class.std::ctype" = type <{ %"class.std::locale::facet.base", [4 x i8], %struct.__locale_struct*, i8, [7 x i8], i32*, i32*, i16*, i8, [256 x i8], [256 x i8], i8, [6 x i8] }>
%"class.std::locale::facet.base" = type <{ i32 (...)**, i32 }>
%struct.__locale_struct = type { [13 x %struct.__locale_data*], i16*, i32*, i32*, [13 x i8*] }
%struct.__locale_data = type opaque
%"class.std::num_put" = type { %"class.std::locale::facet.base", [4 x i8] }
%"class.std::num_get" = type { %"class.std::locale::facet.base", [4 x i8] }

@_ZStL8__ioinit = internal global %"class.std::ios_base::Init" zeroinitializer, align 1
@__dso_handle = external hidden global i8
@_ZSt3cin = external global %"class.std::basic_istream", align 8
@_ZSt4cout = external global %"class.std::basic_ostream", align 8
@llvm.global_ctors = appending global [1 x { i32, void ()*, i8* }] [{ i32, void ()*, i8* } { i32 65535, void ()* @_GLOBAL__sub_I_431.cpp, i8* null }]

declare void @_ZNSt8ios_base4InitC1Ev(%"class.std::ios_base::Init"* nonnull align 1 dereferenceable(1)) unnamed_addr #0

; Function Attrs: nounwind
declare void @_ZNSt8ios_base4InitD1Ev(%"class.std::ios_base::Init"* nonnull align 1 dereferenceable(1)) unnamed_addr #1

; Function Attrs: nofree nounwind
declare i32 @__cxa_atexit(void (i8*)*, i8*, i8*) local_unnamed_addr #2

; Function Attrs: mustprogress norecurse sspstrong uwtable
define dso_local i32 @main() local_unnamed_addr #3 {
  %1 = alloca [1000 x i32], align 16
  %2 = alloca i32, align 4
  %3 = bitcast [1000 x i32]* %1 to i8*
  call void @llvm.lifetime.start.p0i8(i64 4000, i8* nonnull %3) #7
  call void @llvm.memset.p0i8.i64(i8* noundef nonnull align 16 dereferenceable(4000) %3, i8 0, i64 4000, i1 false)
  %4 = bitcast i32* %2 to i8*
  call void @llvm.lifetime.start.p0i8(i64 4, i8* nonnull %4) #7
  store i32 0, i32* %2, align 4, !tbaa !5
  %5 = getelementptr inbounds [1000 x i32], [1000 x i32]* %1, i64 0, i64 0
  store i32 1, i32* %5, align 16, !tbaa !5
  %6 = call nonnull align 8 dereferenceable(16) %"class.std::basic_istream"* @_ZNSirsERi(%"class.std::basic_istream"* nonnull align 8 dereferenceable(16) @_ZSt3cin, i32* nonnull align 4 dereferenceable(4) %2)
  %7 = load i32, i32* %2, align 4, !tbaa !5
  %8 = icmp sgt i32 %7, 0
  br i1 %8, label %9, label %41

9:                                                ; preds = %0, %38
  %10 = phi i32 [ %39, %38 ], [ 0, %0 ]
  br label %11

11:                                               ; preds = %57, %9
  %12 = phi i64 [ 0, %9 ], [ %68, %57 ]
  %13 = getelementptr inbounds [1000 x i32], [1000 x i32]* %1, i64 0, i64 %12
  %14 = bitcast i32* %13 to <4 x i32>*
  %15 = load <4 x i32>, <4 x i32>* %14, align 16, !tbaa !5
  %16 = getelementptr inbounds i32, i32* %13, i64 4
  %17 = bitcast i32* %16 to <4 x i32>*
  %18 = load <4 x i32>, <4 x i32>* %17, align 16, !tbaa !5
  %19 = shl nsw <4 x i32> %15, <i32 1, i32 1, i32 1, i32 1>
  %20 = shl nsw <4 x i32> %18, <i32 1, i32 1, i32 1, i32 1>
  %21 = bitcast i32* %13 to <4 x i32>*
  store <4 x i32> %19, <4 x i32>* %21, align 16, !tbaa !5
  %22 = bitcast i32* %16 to <4 x i32>*
  store <4 x i32> %20, <4 x i32>* %22, align 16, !tbaa !5
  %23 = or i64 %12, 8
  %24 = icmp eq i64 %23, 1000
  br i1 %24, label %25, label %57, !llvm.loop !9

25:                                               ; preds = %11
  %26 = load i32, i32* %5, align 16, !tbaa !5
  br label %27

27:                                               ; preds = %25, %27
  %28 = phi i32 [ %26, %25 ], [ %35, %27 ]
  %29 = phi i64 [ 0, %25 ], [ %32, %27 ]
  %30 = getelementptr inbounds [1000 x i32], [1000 x i32]* %1, i64 0, i64 %29
  %31 = sdiv i32 %28, 10
  %32 = add nuw nsw i64 %29, 1
  %33 = getelementptr inbounds [1000 x i32], [1000 x i32]* %1, i64 0, i64 %32
  %34 = load i32, i32* %33, align 4, !tbaa !5
  %35 = add nsw i32 %34, %31
  store i32 %35, i32* %33, align 4, !tbaa !5
  %36 = srem i32 %28, 10
  store i32 %36, i32* %30, align 4, !tbaa !5
  %37 = icmp eq i64 %32, 1000
  br i1 %37, label %38, label %27, !llvm.loop !12

38:                                               ; preds = %27
  %39 = add nuw nsw i32 %10, 1
  %40 = icmp eq i32 %39, %7
  br i1 %40, label %41, label %9, !llvm.loop !13

41:                                               ; preds = %38, %0
  br label %42

42:                                               ; preds = %41, %53
  %43 = phi i64 [ %54, %53 ], [ 999, %41 ]
  %44 = phi i32 [ %49, %53 ], [ 0, %41 ]
  %45 = getelementptr inbounds [1000 x i32], [1000 x i32]* %1, i64 0, i64 %43
  %46 = load i32, i32* %45, align 4, !tbaa !5
  %47 = icmp ne i32 %46, 0
  %48 = zext i1 %47 to i32
  %49 = add nuw nsw i32 %44, %48
  %50 = icmp eq i32 %49, 0
  br i1 %50, label %53, label %51

51:                                               ; preds = %42
  %52 = call nonnull align 8 dereferenceable(8) %"class.std::basic_ostream"* @_ZNSolsEi(%"class.std::basic_ostream"* nonnull align 8 dereferenceable(8) @_ZSt4cout, i32 %46)
  br label %53

53:                                               ; preds = %42, %51
  %54 = add nsw i64 %43, -1
  %55 = icmp eq i64 %43, 0
  br i1 %55, label %56, label %42, !llvm.loop !14

56:                                               ; preds = %53
  call void @llvm.lifetime.end.p0i8(i64 4, i8* nonnull %4) #7
  call void @llvm.lifetime.end.p0i8(i64 4000, i8* nonnull %3) #7
  ret i32 0

57:                                               ; preds = %11
  %58 = getelementptr inbounds [1000 x i32], [1000 x i32]* %1, i64 0, i64 %23
  %59 = bitcast i32* %58 to <4 x i32>*
  %60 = load <4 x i32>, <4 x i32>* %59, align 16, !tbaa !5
  %61 = getelementptr inbounds i32, i32* %58, i64 4
  %62 = bitcast i32* %61 to <4 x i32>*
  %63 = load <4 x i32>, <4 x i32>* %62, align 16, !tbaa !5
  %64 = shl nsw <4 x i32> %60, <i32 1, i32 1, i32 1, i32 1>
  %65 = shl nsw <4 x i32> %63, <i32 1, i32 1, i32 1, i32 1>
  %66 = bitcast i32* %58 to <4 x i32>*
  store <4 x i32> %64, <4 x i32>* %66, align 16, !tbaa !5
  %67 = bitcast i32* %61 to <4 x i32>*
  store <4 x i32> %65, <4 x i32>* %67, align 16, !tbaa !5
  %68 = add nuw nsw i64 %12, 16
  br label %11
}

; Function Attrs: argmemonly mustprogress nofree nosync nounwind willreturn
declare void @llvm.lifetime.start.p0i8(i64 immarg, i8* nocapture) #4

; Function Attrs: argmemonly mustprogress nofree nounwind willreturn writeonly
declare void @llvm.memset.p0i8.i64(i8* nocapture writeonly, i8, i64, i1 immarg) #5

declare nonnull align 8 dereferenceable(16) %"class.std::basic_istream"* @_ZNSirsERi(%"class.std::basic_istream"* nonnull align 8 dereferenceable(16), i32* nonnull align 4 dereferenceable(4)) local_unnamed_addr #0

declare nonnull align 8 dereferenceable(8) %"class.std::basic_ostream"* @_ZNSolsEi(%"class.std::basic_ostream"* nonnull align 8 dereferenceable(8), i32) local_unnamed_addr #0

; Function Attrs: argmemonly mustprogress nofree nosync nounwind willreturn
declare void @llvm.lifetime.end.p0i8(i64 immarg, i8* nocapture) #4

; Function Attrs: sspstrong uwtable
define internal void @_GLOBAL__sub_I_431.cpp() #6 section ".text.startup" {
  tail call void @_ZNSt8ios_base4InitC1Ev(%"class.std::ios_base::Init"* nonnull align 1 dereferenceable(1) @_ZStL8__ioinit)
  %1 = tail call i32 @__cxa_atexit(void (i8*)* bitcast (void (%"class.std::ios_base::Init"*)* @_ZNSt8ios_base4InitD1Ev to void (i8*)*), i8* getelementptr inbounds (%"class.std::ios_base::Init", %"class.std::ios_base::Init"* @_ZStL8__ioinit, i64 0, i32 0), i8* nonnull @__dso_handle) #7
  ret void
}


!llvm.module.flags = !{!0, !1, !2, !3}
!llvm.ident = !{!4}

!0 = !{i32 1, !"wchar_size", i32 4}
!1 = !{i32 7, !"PIC Level", i32 2}
!2 = !{i32 7, !"PIE Level", i32 2}
!3 = !{i32 7, !"uwtable", i32 1}
!4 = !{!"clang version 13.0.0"}
!5 = !{!6, !6, i64 0}
!6 = !{!"int", !7, i64 0}
!7 = !{!"omnipotent char", !8, i64 0}
!8 = !{!"Simple C++ TBAA"}
!9 = distinct !{!9, !10, !11}
!10 = !{!"llvm.loop.mustprogress"}
!11 = !{!"llvm.loop.isvectorized", i32 1}
!12 = distinct !{!12, !10}
!13 = distinct !{!13, !10}
!14 = distinct !{!14, !10}
